target datalayout = "e-m:e-p270:32:32-p271:32:32-p272:64:64-i64:64-i128:128-f80:128-n8:16:32:64-S128"
target triple = "x86_64-pc-linux-gnu"

%struct.OSSL_TIME = type { i64 }
%struct.ossl_cc_method_st = type { ptr, ptr, ptr, ptr, ptr, ptr, ptr, ptr, ptr, ptr, ptr, ptr, ptr, ptr }
%struct.helper = type { ptr, ptr, i64, ptr, %struct.ossl_statm_st, i32 }
%struct.ossl_statm_st = type { %struct.OSSL_TIME, %struct.OSSL_TIME, %struct.OSSL_TIME, %struct.OSSL_TIME, i8 }

@.str.3 = private unnamed_addr constant [33 x i8] c"../openssl/test/quic_ackm_test.c\00", align 1
@.str.6 = private unnamed_addr constant [2 x i8] c"1\00", align 1
@fake_time = internal global %struct.OSSL_TIME zeroinitializer, align 8
@.str.32 = private unnamed_addr constant [27 x i8] c"ossl_statm_init(&h->statm)\00", align 1
@ossl_cc_dummy_method = external constant %struct.ossl_cc_method_st, align 8
@.str.33 = private unnamed_addr constant [10 x i8] c"h->ccdata\00", align 1
@.str.34 = private unnamed_addr constant [8 x i8] c"h->ackm\00", align 1
@.str.35 = private unnamed_addr constant [8 x i8] c"h->pkts\00", align 1

; Function Attrs: inlinehint nounwind uwtable
define internal i64 @ossl_ticks2time(i64 noundef %0) #4 {
  %2 = alloca %struct.OSSL_TIME, align 8
  %3 = alloca i64, align 8
  store i64 %0, ptr %3, align 8, !tbaa !11
  %4 = load i64, ptr %3, align 8, !tbaa !11
  %5 = getelementptr inbounds nuw %struct.OSSL_TIME, ptr %2, i32 0, i32 0
  store i64 %4, ptr %5, align 8, !tbaa !82
  %6 = getelementptr inbounds nuw %struct.OSSL_TIME, ptr %2, i32 0, i32 0
  %7 = load i64, ptr %6, align 8
  ret i64 %7
}

; Function Attrs: nounwind uwtable
define internal i32 @helper_init(ptr noundef %0, i64 noundef %1) #0 {
  %3 = alloca ptr, align 8
  %4 = alloca i64, align 8
  %5 = alloca i32, align 4
  %6 = alloca %struct.OSSL_TIME, align 8
  store ptr %0, ptr %3, align 8, !tbaa !73
  store i64 %1, ptr %4, align 8, !tbaa !11
  call void @llvm.lifetime.start.p0(i64 4, ptr %5) #7
  store i32 0, ptr %5, align 4, !tbaa !4
  %7 = load ptr, ptr %3, align 8, !tbaa !73
  call void @llvm.memset.p0.i64(ptr align 8 %7, i8 0, i64 80, i1 false)
  call void @llvm.lifetime.start.p0(i64 8, ptr %6) #7
  %8 = call i64 @ossl_ticks2time(i64 noundef 123000000000)
  %9 = getelementptr inbounds nuw %struct.OSSL_TIME, ptr %6, i32 0, i32 0
  store i64 %8, ptr %9, align 8
  call void @llvm.memcpy.p0.p0.i64(ptr align 8 @fake_time, ptr align 8 %6, i64 8, i1 false), !tbaa.struct !42
  call void @llvm.lifetime.end.p0(i64 8, ptr %6) #7
  %10 = load ptr, ptr %3, align 8, !tbaa !73
  %11 = getelementptr inbounds nuw %struct.helper, ptr %10, i32 0, i32 4
  %12 = call i32 @ossl_statm_init(ptr noundef %11)
  %13 = call i32 @test_int_eq(ptr noundef @.str.3, i32 noundef 95, ptr noundef @.str.32, ptr noundef @.str.6, i32 noundef %12, i32 noundef 1)
  %14 = icmp ne i32 %13, 0
  br i1 %14, label %16, label %15

15:                                               ; preds = %2
  br label %67

16:                                               ; preds = %2
  %17 = load ptr, ptr %3, align 8, !tbaa !73
  %18 = getelementptr inbounds nuw %struct.helper, ptr %17, i32 0, i32 5
  store i32 1, ptr %18, align 8, !tbaa !75
  %19 = load ptr, ptr @ossl_cc_dummy_method, align 8, !tbaa !76
  %20 = call ptr %19(ptr noundef @fake_now, ptr noundef null)
  %21 = load ptr, ptr %3, align 8, !tbaa !73
  %22 = getelementptr inbounds nuw %struct.helper, ptr %21, i32 0, i32 3
  store ptr %20, ptr %22, align 8, !tbaa !78
  %23 = load ptr, ptr %3, align 8, !tbaa !73
  %24 = getelementptr inbounds nuw %struct.helper, ptr %23, i32 0, i32 3
  %25 = load ptr, ptr %24, align 8, !tbaa !78
  %26 = call i32 @test_ptr(ptr noundef @.str.3, i32 noundef 102, ptr noundef @.str.33, ptr noundef %25)
  %27 = icmp ne i32 %26, 0
  br i1 %27, label %29, label %28

28:                                               ; preds = %16
  br label %67

29:                                               ; preds = %16
  %30 = load ptr, ptr %3, align 8, !tbaa !73
  %31 = getelementptr inbounds nuw %struct.helper, ptr %30, i32 0, i32 4
  %32 = load ptr, ptr %3, align 8, !tbaa !73
  %33 = getelementptr inbounds nuw %struct.helper, ptr %32, i32 0, i32 3
  %34 = load ptr, ptr %33, align 8, !tbaa !78
  %35 = call ptr @ossl_ackm_new(ptr noundef @fake_now, ptr noundef null, ptr noundef %31, ptr noundef @ossl_cc_dummy_method, ptr noundef %34)
  %36 = load ptr, ptr %3, align 8, !tbaa !73
  %37 = getelementptr inbounds nuw %struct.helper, ptr %36, i32 0, i32 0
  store ptr %35, ptr %37, align 8, !tbaa !43
  %38 = load ptr, ptr %3, align 8, !tbaa !73
  %39 = getelementptr inbounds nuw %struct.helper, ptr %38, i32 0, i32 0
  %40 = load ptr, ptr %39, align 8, !tbaa !43
  %41 = call i32 @test_ptr(ptr noundef @.str.3, i32 noundef 108, ptr noundef @.str.34, ptr noundef %40)
  %42 = icmp ne i32 %41, 0
  br i1 %42, label %44, label %43

43:                                               ; preds = %29
  br label %67

44:                                               ; preds = %29
  %45 = load i64, ptr %4, align 8, !tbaa !11
  %46 = load ptr, ptr %3, align 8, !tbaa !73
  %47 = getelementptr inbounds nuw %struct.helper, ptr %46, i32 0, i32 2
  store i64 %45, ptr %47, align 8, !tbaa !79
  %48 = load i64, ptr %4, align 8, !tbaa !11
  %49 = icmp ugt i64 %48, 0
  br i1 %49, label %50, label %63

50:                                               ; preds = %44
  %51 = load i64, ptr %4, align 8, !tbaa !11
  %52 = mul i64 24, %51
  %53 = call noalias ptr @CRYPTO_zalloc(i64 noundef %52, ptr noundef @.str.3, i32 noundef 114)
  %54 = load ptr, ptr %3, align 8, !tbaa !73
  %55 = getelementptr inbounds nuw %struct.helper, ptr %54, i32 0, i32 1
  store ptr %53, ptr %55, align 8, !tbaa !21
  %56 = load ptr, ptr %3, align 8, !tbaa !73
  %57 = getelementptr inbounds nuw %struct.helper, ptr %56, i32 0, i32 1
  %58 = load ptr, ptr %57, align 8, !tbaa !21
  %59 = call i32 @test_ptr(ptr noundef @.str.3, i32 noundef 115, ptr noundef @.str.35, ptr noundef %58)
  %60 = icmp ne i32 %59, 0
  br i1 %60, label %62, label %61

61:                                               ; preds = %50
  br label %67

62:                                               ; preds = %50
  br label %66

63:                                               ; preds = %44
  %64 = load ptr, ptr %3, align 8, !tbaa !73
  %65 = getelementptr inbounds nuw %struct.helper, ptr %64, i32 0, i32 1
  store ptr null, ptr %65, align 8, !tbaa !21
  br label %66

66:                                               ; preds = %63, %62
  store i32 1, ptr %5, align 4, !tbaa !4
  br label %67

67:                                               ; preds = %66, %61, %43, %28, %15
  %68 = load i32, ptr %5, align 4, !tbaa !4
  %69 = icmp eq i32 %68, 0
  br i1 %69, label %70, label %72

70:                                               ; preds = %67
  %71 = load ptr, ptr %3, align 8, !tbaa !73
  call void @helper_destroy(ptr noundef %71)
  br label %72

72:                                               ; preds = %70, %67
  %73 = load i32, ptr %5, align 4, !tbaa !4
  call void @llvm.lifetime.end.p0(i64 4, ptr %5) #7
  ret i32 %73
}