; Function Attrs: nounwind uwtable
define internal fastcc range(i32 0, 2) i32 @helper_init(ptr noundef nonnull initializes((0, 80)) %0, i64 noundef %1) unnamed_addr #0 {
  tail call void @llvm.memset.p0.i64(ptr noundef nonnull align 8 dereferenceable(80) %0, i8 0, i64 80, i1 false)
  store i64 123000000000, ptr @fake_time.0, align 8, !tbaa !30
  %3 = getelementptr inbounds nuw i8, ptr %0, i64 32
  %4 = tail call i32 @ossl_statm_init(ptr noundef nonnull %3) #9
  %5 = tail call i32 @test_int_eq(ptr noundef nonnull @.str.3, i32 noundef 95, ptr noundef nonnull @.str.32, ptr noundef nonnull @.str.6, i32 noundef %4, i32 noundef 1) #9
  %.not = icmp eq i32 %5, 0
  br i1 %.not, label %25, label %6

6:                                                ; preds = %2
  %7 = getelementptr inbounds nuw i8, ptr %0, i64 72
  store i32 1, ptr %7, align 8, !tbaa !88
  %8 = load ptr, ptr @ossl_cc_dummy_method, align 8, !tbaa !89
  %9 = tail call ptr %8(ptr noundef nonnull @fake_now, ptr noundef null) #9
  %10 = getelementptr inbounds nuw i8, ptr %0, i64 24
  store ptr %9, ptr %10, align 8, !tbaa !91
  %11 = tail call i32 @test_ptr(ptr noundef nonnull @.str.3, i32 noundef 102, ptr noundef nonnull @.str.33, ptr noundef %9) #9
  %.not19 = icmp eq i32 %11, 0
  br i1 %.not19, label %25, label %12

12:                                               ; preds = %6
  %13 = load ptr, ptr %10, align 8, !tbaa !91
  %14 = tail call ptr @ossl_ackm_new(ptr noundef nonnull @fake_now, ptr noundef null, ptr noundef nonnull %3, ptr noundef nonnull @ossl_cc_dummy_method, ptr noundef %13) #9
  store ptr %14, ptr %0, align 8, !tbaa !15
  %15 = tail call i32 @test_ptr(ptr noundef nonnull @.str.3, i32 noundef 108, ptr noundef nonnull @.str.34, ptr noundef %14) #9
  %.not20 = icmp eq i32 %15, 0
  br i1 %.not20, label %25, label %16

16:                                               ; preds = %12
  %17 = getelementptr inbounds nuw i8, ptr %0, i64 16
  store i64 %1, ptr %17, align 8, !tbaa !92
  %.not21 = icmp eq i64 %1, 0
  br i1 %.not21, label %23, label %18

18:                                               ; preds = %16
  %19 = mul i64 %1, 24
  %20 = tail call noalias ptr @CRYPTO_zalloc(i64 noundef %19, ptr noundef nonnull @.str.3, i32 noundef 114) #9
  %21 = getelementptr inbounds nuw i8, ptr %0, i64 8
  store ptr %20, ptr %21, align 8, !tbaa !25
  %22 = tail call i32 @test_ptr(ptr noundef nonnull @.str.3, i32 noundef 115, ptr noundef nonnull @.str.35, ptr noundef %20) #9
  %.not22 = icmp eq i32 %22, 0
  br i1 %.not22, label %25, label %26

23:                                               ; preds = %16
  %24 = getelementptr inbounds nuw i8, ptr %0, i64 8
  store ptr null, ptr %24, align 8, !tbaa !25
  br label %26

25:                                               ; preds = %18, %12, %6, %2
  tail call fastcc void @helper_destroy(ptr noundef %0)
  br label %26

26:                                               ; preds = %18, %23, %25
  %.024 = phi i32 [ 0, %25 ], [ 1, %23 ], [ 1, %18 ]
  ret i32 %.024
}